; Function Attrs: mustprogress uwtable
define void @_Z22tsi_handshaker_destroyP14tsi_handshaker(ptr noundef %0) local_unnamed_addr #4 {
  %2 = icmp eq ptr %0, null
  br i1 %2, label %7, label %3

3:                                                ; preds = %1
  %4 = load ptr, ptr %0, align 8, !tbaa !14
  %5 = getelementptr inbounds nuw i8, ptr %4, i64 40
  %6 = load ptr, ptr %5, align 8, !tbaa !36
  tail call void %6(ptr noundef nonnull %0)
  br label %7

7:                                                ; preds = %1, %3
  ret void
}